target datalayout = "e-m:e-p270:32:32-p271:32:32-p272:64:64-i64:64-i128:128-f80:128-n8:16:32:64-S128"
target triple = "x86_64-pc-linux-gnu"

%struct.context_type = type { ptr, ptr, i32, i8, ptr, [16 x %struct.alloc_stack_type], i32, ptr, i32, i32, ptr, %struct.hash_table_type, i32, i32, i32, i32, i32, i32, i32, i32, ptr, ptr, i32, ptr, ptr, ptr, ptr, i32, i32, [4 x i32], i32, i32, ptr, ptr, ptr, i32, [1 x %struct.__jmp_buf_tag] }
%struct.alloc_stack_type = type { ptr, i32, ptr }
%struct.hash_table_type = type { ptr, ptr, i32 }
%struct.__jmp_buf_tag = type { [8 x i64], i32, %struct.__sigset_t }
%struct.__sigset_t = type { [16 x i64] }
%struct.__va_list_tag = type { i32, i32, ptr, ptr }

; Function Attrs: nounwind uwtable
define internal void @CFerror(ptr noundef %0, ptr noundef %1, ...) #0 {
  %3 = alloca ptr, align 8
  %4 = alloca ptr, align 8
  %5 = alloca i32, align 4
  %6 = alloca [1 x %struct.__va_list_tag], align 16
  store ptr %0, ptr %3, align 8
  store ptr %1, ptr %4, align 8
  %7 = load ptr, ptr %3, align 8
  %8 = call i32 @print_CCerror_info(ptr noundef %7)
  store i32 %8, ptr %5, align 4
  %9 = load i32, ptr %5, align 4
  %10 = icmp sge i32 %9, 0
  br i1 %10, label %11, label %35

11:                                               ; preds = %2
  %12 = load i32, ptr %5, align 4
  %13 = load ptr, ptr %3, align 8
  %14 = getelementptr inbounds %struct.context_type, ptr %13, i32 0, i32 2
  %15 = load i32, ptr %14, align 8
  %16 = icmp slt i32 %12, %15
  br i1 %16, label %17, label %35

17:                                               ; preds = %11
  %18 = getelementptr inbounds [1 x %struct.__va_list_tag], ptr %6, i64 0, i64 0
  call void @llvm.va_start.p0(ptr %18)
  %19 = load ptr, ptr %3, align 8
  %20 = getelementptr inbounds %struct.context_type, ptr %19, i32 0, i32 1
  %21 = load ptr, ptr %20, align 8
  %22 = load i32, ptr %5, align 4
  %23 = sext i32 %22 to i64
  %24 = getelementptr inbounds i8, ptr %21, i64 %23
  %25 = load ptr, ptr %3, align 8
  %26 = getelementptr inbounds %struct.context_type, ptr %25, i32 0, i32 2
  %27 = load i32, ptr %26, align 8
  %28 = load i32, ptr %5, align 4
  %29 = sub nsw i32 %27, %28
  %30 = sext i32 %29 to i64
  %31 = load ptr, ptr %4, align 8
  %32 = getelementptr inbounds [1 x %struct.__va_list_tag], ptr %6, i64 0, i64 0
  %33 = call i32 @jio_vsnprintf(ptr noundef %24, i64 noundef %30, ptr noundef %31, ptr noundef %32)
  %34 = getelementptr inbounds [1 x %struct.__va_list_tag], ptr %6, i64 0, i64 0
  call void @llvm.va_end.p0(ptr %34)
  br label %35

35:                                               ; preds = %17, %11, %2
  %36 = load ptr, ptr %3, align 8
  %37 = getelementptr inbounds %struct.context_type, ptr %36, i32 0, i32 3
  store i8 3, ptr %37, align 4
  %38 = load ptr, ptr %3, align 8
  %39 = getelementptr inbounds %struct.context_type, ptr %38, i32 0, i32 36
  %40 = getelementptr inbounds [1 x %struct.__jmp_buf_tag], ptr %39, i64 0, i64 0
  call void @longjmp(ptr noundef %40, i32 noundef 1) #12
  unreachable
}