; Function Attrs: noreturn nounwind uwtable
define internal void @CFerror(ptr noundef %0, ptr noundef %1, ...) unnamed_addr #2 {
  %3 = alloca [1 x %struct.__va_list_tag], align 16
  %4 = tail call fastcc i32 @print_CCerror_info(ptr noundef %0)
  %5 = icmp sgt i32 %4, -1
  br i1 %5, label %6, label %19

6:                                                ; preds = %2
  %7 = getelementptr inbounds i8, ptr %0, i64 16
  %8 = load i32, ptr %7, align 8
  %9 = icmp slt i32 %4, %8
  br i1 %9, label %10, label %19

10:                                               ; preds = %6
  call void @llvm.va_start.p0(ptr nonnull %3)
  %11 = getelementptr inbounds i8, ptr %0, i64 8
  %12 = load ptr, ptr %11, align 8
  %13 = zext nneg i32 %4 to i64
  %14 = getelementptr inbounds i8, ptr %12, i64 %13
  %15 = load i32, ptr %7, align 8
  %16 = sub nsw i32 %15, %4
  %17 = sext i32 %16 to i64
  %18 = call i32 @jio_vsnprintf(ptr noundef %14, i64 noundef %17, ptr noundef %1, ptr noundef nonnull %3) #20
  call void @llvm.va_end.p0(ptr nonnull %3)
  br label %19

19:                                               ; preds = %10, %6, %2
  %20 = getelementptr inbounds i8, ptr %0, i64 20
  store i8 3, ptr %20, align 4
  %21 = getelementptr inbounds i8, ptr %0, i64 624
  call void @longjmp(ptr noundef nonnull %21, i32 noundef 1) #17
  unreachable
}